target datalayout = "e-m:e-p270:32:32-p271:32:32-p272:64:64-i64:64-i128:128-f80:128-n8:16:32:64-S128"
target triple = "x86_64-pc-linux-gnu"

; Function Attrs: nounwind uwtable
define i32 @av_color_transfer_from_name(ptr noundef %0) #0 {
  %2 = alloca i32, align 4
  %3 = alloca ptr, align 8
  %4 = alloca i32, align 4
  %5 = alloca i32, align 4
  store ptr %0, ptr %3, align 8, !tbaa !29
  call void @llvm.lifetime.start.p0(i64 4, ptr %4) #8
  store i32 0, ptr %4, align 4, !tbaa !15
  br label %6

6:                                                ; preds = %28, %1
  %7 = load i32, ptr %4, align 4, !tbaa !15
  %8 = sext i32 %7 to i64
  %9 = icmp ult i64 %8, 19
  br i1 %9, label %10, label %31

10:                                               ; preds = %6
  %11 = load i32, ptr %4, align 4, !tbaa !15
  %12 = sext i32 %11 to i64
  %13 = getelementptr inbounds [19 x ptr], ptr @color_transfer_names, i64 0, i64 %12
  %14 = load ptr, ptr %13, align 8, !tbaa !29
  %15 = icmp ne ptr %14, null
  br i1 %15, label %17, label %16

16:                                               ; preds = %10
  br label %28

17:                                               ; preds = %10
  %18 = load ptr, ptr %3, align 8, !tbaa !29
  %19 = load i32, ptr %4, align 4, !tbaa !15
  %20 = sext i32 %19 to i64
  %21 = getelementptr inbounds [19 x ptr], ptr @color_transfer_names, i64 0, i64 %20
  %22 = load ptr, ptr %21, align 8, !tbaa !29
  %23 = call i32 @av_strstart(ptr noundef %18, ptr noundef %22, ptr noundef null)
  %24 = icmp ne i32 %23, 0
  br i1 %24, label %25, label %27

25:                                               ; preds = %17
  %26 = load i32, ptr %4, align 4, !tbaa !15
  store i32 %26, ptr %2, align 4
  store i32 1, ptr %5, align 4
  br label %32

27:                                               ; preds = %17
  br label %28

28:                                               ; preds = %27, %16
  %29 = load i32, ptr %4, align 4, !tbaa !15
  %30 = add nsw i32 %29, 1
  store i32 %30, ptr %4, align 4, !tbaa !15
  br label %6, !llvm.loop !59

31:                                               ; preds = %6
  store i32 -22, ptr %2, align 4
  store i32 1, ptr %5, align 4
  br label %32

32:                                               ; preds = %31, %25
  call void @llvm.lifetime.end.p0(i64 4, ptr %4) #8
  %33 = load i32, ptr %2, align 4
  ret i32 %33
}