; Function Attrs: nounwind uwtable
define range(i32 -22, 19) i32 @av_color_transfer_from_name(ptr noundef %0) local_unnamed_addr #4 {
  br label %2

2:                                                ; preds = %1, %6
  %indvars.iv = phi i64 [ 0, %1 ], [ %indvars.iv.next, %6 ]
  %3 = getelementptr inbounds nuw [19 x ptr], ptr @color_transfer_names, i64 0, i64 %indvars.iv
  %4 = load ptr, ptr %3, align 8, !tbaa !13
  %5 = tail call i32 @av_strstart(ptr noundef %0, ptr noundef %4, ptr noundef null) #15
  %.not = icmp eq i32 %5, 0
  br i1 %.not, label %6, label %.split.loop.exit11

6:                                                ; preds = %2
  %indvars.iv.next = add nuw nsw i64 %indvars.iv, 1
  %exitcond.not = icmp eq i64 %indvars.iv.next, 19
  br i1 %exitcond.not, label %.split.loop.exit, label %2, !llvm.loop !44

.split.loop.exit11:                               ; preds = %2
  %7 = trunc nuw nsw i64 %indvars.iv to i32
  br label %.split.loop.exit

.split.loop.exit:                                 ; preds = %6, %.split.loop.exit11
  %.06 = phi i32 [ %7, %.split.loop.exit11 ], [ -22, %6 ]
  ret i32 %.06
}